; Function Attrs: mustprogress nofree norecurse nosync nounwind willreturn memory(argmem: write) uwtable
define dso_local void @_ZN4node4quic11BindingDatacv10ngtcp2_memEv(ptr noalias nocapture writeonly sret(%struct.ngtcp2_mem) align 8 %agg.result, ptr noundef nonnull align 8 dereferenceable(992) %this) local_unnamed_addr #4 align 2 {
entry:
  store ptr %this, ptr %agg.result, align 8, !alias.scope !6
  %malloc.i = getelementptr inbounds i8, ptr %agg.result, i64 8
  store ptr @_ZN4node3mem18NgLibMemoryManagerINS_4quic11BindingDataE10ngtcp2_memE10MallocImplEmPv, ptr %malloc.i, align 8, !alias.scope !6
  %free.i = getelementptr inbounds i8, ptr %agg.result, i64 16
  store ptr @_ZN4node3mem18NgLibMemoryManagerINS_4quic11BindingDataE10ngtcp2_memE8FreeImplEPvS6_, ptr %free.i, align 8, !alias.scope !6
  %calloc.i = getelementptr inbounds i8, ptr %agg.result, i64 24
  store ptr @_ZN4node3mem18NgLibMemoryManagerINS_4quic11BindingDataE10ngtcp2_memE10CallocImplEmmPv, ptr %calloc.i, align 8, !alias.scope !6
  %realloc.i = getelementptr inbounds i8, ptr %agg.result, i64 32
  store ptr @_ZN4node3mem18NgLibMemoryManagerINS_4quic11BindingDataE10ngtcp2_memE11ReallocImplEPvmS6_, ptr %realloc.i, align 8, !alias.scope !6
  ret void
}